; Function Attrs: mustprogress uwtable
define hidden noundef zeroext i1 @_ZNK5arith6solver17is_registered_varEi(ptr nocapture noundef nonnull readonly align 8 dereferenceable(1144) %this, i32 noundef %v) local_unnamed_addr #3 align 2 {
entry:
  %cmp.not = icmp eq i32 %v, -1
  br i1 %cmp.not, label %land.end, label %land.rhs

land.rhs:                                         ; preds = %entry
  %m_solver.i = getelementptr inbounds i8, ptr %this, i64 592
  %0 = load ptr, ptr %m_solver.i, align 8
  %call2 = tail call noundef zeroext i1 @_ZNK2lp10lar_solver16external_is_usedEj(ptr noundef nonnull align 8 dereferenceable(1888) %0, i32 noundef %v)
  br label %land.end

land.end:                                         ; preds = %land.rhs, %entry
  %1 = phi i1 [ false, %entry ], [ %call2, %land.rhs ]
  ret i1 %1
}